; Function Attrs: nounwind uwtable
define ptr @l_Std_DHashMap_Internal_AssocList_foldrM___at_Lean_Elab_Tactic_BVDecide_Frontend_Normalize_typeAnalysisPass___elambda__1___spec__1(ptr noundef %0, ptr noundef %1) local_unnamed_addr #1 {
  %3 = ptrtoint ptr %1 to i64
  %4 = and i64 %3, 1
  %.not.i = icmp eq i64 %4, 0
  br i1 %.not.i, label %8, label %5

5:                                                ; preds = %2
  %6 = lshr i64 %3, 1
  %7 = trunc i64 %6 to i32
  br label %lean_obj_tag.exit

8:                                                ; preds = %2
  %9 = getelementptr i8, ptr %1, i64 4
  %.val.i = load i32, ptr %9, align 4
  %10 = lshr i32 %.val.i, 24
  br label %lean_obj_tag.exit

lean_obj_tag.exit:                                ; preds = %5, %8
  %.0.i = phi i32 [ %7, %5 ], [ %10, %8 ]
  %11 = icmp eq i32 %.0.i, 0
  br i1 %11, label %12, label %21

12:                                               ; preds = %lean_obj_tag.exit
  %13 = ptrtoint ptr %0 to i64
  %14 = and i64 %13, 1
  %.not20 = icmp eq i64 %14, 0
  br i1 %.not20, label %15, label %lean_inc.exit14

15:                                               ; preds = %12
  %.val.i15 = load i32, ptr %0, align 4, !tbaa !8
  %16 = icmp sgt i32 %.val.i15, 0
  br i1 %16, label %17, label %19, !prof !11

17:                                               ; preds = %15
  %18 = add nuw i32 %.val.i15, 1
  store i32 %18, ptr %0, align 4, !tbaa !8
  br label %lean_inc.exit14

19:                                               ; preds = %15
  %.not.i16 = icmp eq i32 %.val.i15, 0
  br i1 %.not.i16, label %lean_inc.exit14, label %20

20:                                               ; preds = %19
  tail call void @lean_inc_ref_cold(ptr noundef nonnull %0) #4
  br label %lean_inc.exit14

21:                                               ; preds = %lean_obj_tag.exit
  %22 = getelementptr inbounds nuw i8, ptr %1, i64 8
  %23 = load ptr, ptr %22, align 8, !tbaa !4
  %24 = getelementptr inbounds nuw i8, ptr %1, i64 24
  %25 = load ptr, ptr %24, align 8, !tbaa !4
  %26 = tail call ptr @l_Std_DHashMap_Internal_AssocList_foldrM___at_Lean_Elab_Tactic_BVDecide_Frontend_Normalize_typeAnalysisPass___elambda__1___spec__1(ptr noundef %0, ptr noundef %25)
  %27 = ptrtoint ptr %23 to i64
  %28 = and i64 %27, 1
  %.not = icmp eq i64 %28, 0
  br i1 %.not, label %29, label %lean_inc.exit

29:                                               ; preds = %21
  %.val.i17 = load i32, ptr %23, align 4, !tbaa !8
  %30 = icmp sgt i32 %.val.i17, 0
  br i1 %30, label %31, label %33, !prof !11

31:                                               ; preds = %29
  %32 = add nuw i32 %.val.i17, 1
  store i32 %32, ptr %23, align 4, !tbaa !8
  br label %lean_inc.exit

33:                                               ; preds = %29
  %.not.i18 = icmp eq i32 %.val.i17, 0
  br i1 %.not.i18, label %lean_inc.exit, label %34

34:                                               ; preds = %33
  tail call void @lean_inc_ref_cold(ptr noundef nonnull %23) #4
  br label %lean_inc.exit

lean_inc.exit:                                    ; preds = %34, %33, %31, %21
  tail call void @lean_inc_heartbeat() #4
  %35 = tail call noalias ptr @mi_malloc_small(i64 noundef 24) #4
  %36 = icmp eq ptr %35, null
  br i1 %36, label %37, label %lean_alloc_ctor.exit

37:                                               ; preds = %lean_inc.exit
  tail call void @lean_internal_panic_out_of_memory() #5
  unreachable

lean_alloc_ctor.exit:                             ; preds = %lean_inc.exit
  %38 = getelementptr inbounds nuw i8, ptr %35, i64 4
  store i32 1, ptr %35, align 4, !tbaa !8
  store i32 16908312, ptr %38, align 4
  %39 = getelementptr inbounds nuw i8, ptr %35, i64 8
  store ptr %23, ptr %39, align 8, !tbaa !4
  %40 = getelementptr inbounds nuw i8, ptr %35, i64 16
  store ptr %26, ptr %40, align 8, !tbaa !4
  br label %lean_inc.exit14

lean_inc.exit14:                                  ; preds = %12, %17, %19, %20, %lean_alloc_ctor.exit
  %.0 = phi ptr [ %35, %lean_alloc_ctor.exit ], [ %0, %20 ], [ %0, %19 ], [ %0, %17 ], [ %0, %12 ]
  ret ptr %.0
}